; Function Attrs: mustprogress uwtable
define internal void @_ZL14eventfd_wakeupP14grpc_wakeup_fd(ptr dead_on_unwind noalias writable writeonly sret(%"class.absl::lts_20240722::Status") align 8 captures(none) %0, ptr noundef readonly captures(none) %1) #3 personality ptr @__gxx_personality_v0 {
  %3 = alloca %"class.absl::lts_20240722::log_internal::LogMessageFatal", align 8
  %4 = alloca %"class.absl::lts_20240722::Status", align 8
  %5 = alloca %"class.grpc_core::DebugLocation", align 1
  br label %6

6:                                                ; preds = %10, %2
  %7 = load i32, ptr %1, align 4, !tbaa !3
  %8 = tail call i32 @eventfd_write(i32 noundef %7, i64 noundef 1)
  %9 = icmp slt i32 %8, 0
  br i1 %9, label %10, label %.critedge4

10:                                               ; preds = %6
  %11 = tail call ptr @__errno_location() #14
  %12 = load i32, ptr %11, align 4, !tbaa !9
  %13 = icmp eq i32 %12, 4
  br i1 %13, label %6, label %.critedge, !llvm.loop !26

.critedge:                                        ; preds = %10
  call void @llvm.lifetime.start.p0(i64 1, ptr nonnull %5) #13
  call void @_Z13grpc_os_errorRKN9grpc_core13DebugLocationEiPKc(ptr dead_on_unwind nonnull writable sret(%"class.absl::lts_20240722::Status") align 8 %4, ptr noundef nonnull align 1 dereferenceable(1) %5, i32 noundef %12, ptr noundef nonnull @.str.5)
  call void @llvm.experimental.noalias.scope.decl(metadata !28)
  %14 = load i64, ptr %4, align 8, !tbaa !13, !noalias !28
  %15 = icmp eq i64 %14, 1
  br i1 %15, label %16, label %_ZN4absl12lts_202407226StatusD2Ev.exit, !prof !16

16:                                               ; preds = %.critedge
  call void @llvm.lifetime.start.p0(i64 16, ptr nonnull %3) #13, !noalias !28
  invoke void @_ZN4absl12lts_2024072212log_internal15LogMessageFatalC1EPKciSt17basic_string_viewIcSt11char_traitsIcEE(ptr noundef nonnull align 8 dereferenceable(16) %3, ptr noundef nonnull @.str.2, i32 noundef 75, i64 11, ptr nonnull @.str.3) #15
          to label %.noexc unwind label %17

.noexc:                                           ; preds = %16
  call void @_ZN4absl12lts_2024072212log_internal15LogMessageFatalD1Ev(ptr noundef nonnull align 8 dereferenceable(16) %3) #16, !noalias !28
  unreachable

_ZN4absl12lts_202407226StatusD2Ev.exit:           ; preds = %.critedge
  store i64 %14, ptr %0, align 8, !tbaa !13, !alias.scope !28
  call void @llvm.lifetime.end.p0(i64 1, ptr nonnull %5) #13
  br label %19

17:                                               ; preds = %16
  %18 = landingpad { ptr, i32 }
          cleanup
  call void @_ZN4absl12lts_202407226StatusD2Ev(ptr noundef nonnull align 8 dereferenceable(8) %4) #13
  call void @llvm.lifetime.end.p0(i64 1, ptr nonnull %5) #13
  resume { ptr, i32 } %18

.critedge4:                                       ; preds = %6
  store i64 1, ptr %0, align 8, !tbaa !13, !alias.scope !31
  br label %19

19:                                               ; preds = %.critedge4, %_ZN4absl12lts_202407226StatusD2Ev.exit
  ret void
}